; Function Attrs: mustprogress uwtable
define hidden noundef ptr @_ZNK7datalog17external_relation10complementEP9func_decl(ptr nocapture noundef nonnull readonly align 8 dereferenceable(96) %this, ptr nocapture readnone %p) unnamed_addr #3 align 2 personality ptr @__gxx_personality_v0 {
entry:
  %res = alloca %class.obj_ref, align 8
  %rel = alloca ptr, align 8
  %fn = alloca %class.obj_ref.0, align 8
  %m_rel = getelementptr inbounds i8, ptr %this, i64 32
  %m_manager.i = getelementptr inbounds i8, ptr %this, i64 40
  %0 = load ptr, ptr %m_manager.i, align 8
  %m_plugin.i.i = getelementptr inbounds i8, ptr %this, i64 8
  %1 = load ptr, ptr %m_plugin.i.i, align 8
  %m_ext.i = getelementptr inbounds i8, ptr %1, i64 40
  %2 = load ptr, ptr %m_ext.i, align 8
  %vtable.i = load ptr, ptr %2, align 8
  %vfn.i = getelementptr inbounds i8, ptr %vtable.i, i64 16
  %3 = load ptr, ptr %vfn.i, align 8
  %call.i = tail call noundef i32 %3(ptr noundef nonnull align 8 dereferenceable(8) %2)
  store ptr null, ptr %res, align 8
  %m_manager.i4 = getelementptr inbounds i8, ptr %res, i64 8
  store ptr %0, ptr %m_manager.i4, align 8
  %4 = load ptr, ptr %m_rel, align 8
  store ptr %4, ptr %rel, align 8
  %call7 = invoke noundef ptr @_ZN11ast_manager12mk_func_declEiijPK9parameterjPKP4exprP4sort(ptr noundef nonnull align 8 dereferenceable(976) %0, i32 noundef %call.i, i32 noundef 10, i32 noundef 0, ptr noundef null, i32 noundef 1, ptr noundef nonnull %rel, ptr noundef null)
          to label %invoke.cont6 unwind label %lpad

invoke.cont6:                                     ; preds = %entry
  store ptr %call7, ptr %fn, align 8
  %m_manager.i5 = getelementptr inbounds i8, ptr %fn, i64 8
  store ptr %0, ptr %m_manager.i5, align 8
  %tobool.not.i.i = icmp eq ptr %call7, null
  br i1 %tobool.not.i.i, label %invoke.cont10, label %_ZN11ast_manager7inc_refEP3ast.exit.i.i

_ZN11ast_manager7inc_refEP3ast.exit.i.i:          ; preds = %invoke.cont6
  %m_ref_count.i.i.i.i = getelementptr inbounds i8, ptr %call7, i64 8
  %5 = load i32, ptr %m_ref_count.i.i.i.i, align 4
  %inc.i.i.i.i = add i32 %5, 1
  store i32 %inc.i.i.i.i, ptr %m_ref_count.i.i.i.i, align 4
  br label %invoke.cont10

invoke.cont10:                                    ; preds = %invoke.cont6, %_ZN11ast_manager7inc_refEP3ast.exit.i.i
  %6 = load ptr, ptr %m_plugin.i.i, align 8
  %m_ext.i7 = getelementptr inbounds i8, ptr %6, i64 40
  %7 = load ptr, ptr %m_ext.i7, align 8
  %vtable.i8 = load ptr, ptr %7, align 8
  %vfn.i9 = getelementptr inbounds i8, ptr %vtable.i8, i64 24
  %8 = load ptr, ptr %vfn.i9, align 8
  invoke void %8(ptr noundef nonnull align 8 dereferenceable(8) %7, ptr noundef %call7, i32 noundef 1, ptr noundef nonnull %rel, ptr noundef nonnull align 8 dereferenceable(16) %res)
          to label %invoke.cont14 unwind label %lpad9

invoke.cont14:                                    ; preds = %invoke.cont10
  %call16 = invoke noalias noundef ptr @_ZN6memory8allocateEm(i64 noundef 96)
          to label %invoke.cont17 unwind label %lpad9

invoke.cont17:                                    ; preds = %invoke.cont14
  %9 = load ptr, ptr %m_plugin.i.i, align 8
  %m_signature.i = getelementptr inbounds i8, ptr %this, i64 16
  %10 = load ptr, ptr %res, align 8
  invoke void @_ZN7datalog17external_relationC2ERNS_24external_relation_pluginERKNS_18relation_signatureEP4expr(ptr noundef nonnull align 8 dereferenceable(96) %call16, ptr noundef nonnull align 8 dereferenceable(48) %9, ptr noundef nonnull align 8 dereferenceable(8) %m_signature.i, ptr noundef %10)
          to label %invoke.cont23 unwind label %lpad9

invoke.cont23:                                    ; preds = %invoke.cont17
  br i1 %tobool.not.i.i, label %_ZN7obj_refI9func_decl11ast_managerED2Ev.exit, label %if.then.i.i.i

if.then.i.i.i:                                    ; preds = %invoke.cont23
  %m_ref_count.i.i.i.i12 = getelementptr inbounds i8, ptr %call7, i64 8
  %11 = load i32, ptr %m_ref_count.i.i.i.i12, align 4
  %dec.i.i.i.i = add i32 %11, -1
  store i32 %dec.i.i.i.i, ptr %m_ref_count.i.i.i.i12, align 4
  %cmp.i.i.i = icmp eq i32 %dec.i.i.i.i, 0
  br i1 %cmp.i.i.i, label %if.then2.i.i.i, label %_ZN7obj_refI9func_decl11ast_managerED2Ev.exit

if.then2.i.i.i:                                   ; preds = %if.then.i.i.i
  invoke void @_ZN11ast_manager11delete_nodeEP3ast(ptr noundef nonnull align 8 dereferenceable(976) %0, ptr noundef nonnull %call7)
          to label %_ZN7obj_refI9func_decl11ast_managerED2Ev.exit unwind label %terminate.lpad.i

terminate.lpad.i:                                 ; preds = %if.then2.i.i.i
  %12 = landingpad { ptr, i32 }
          catch ptr null
  %13 = extractvalue { ptr, i32 } %12, 0
  call void @__clang_call_terminate(ptr %13) #18
  unreachable

_ZN7obj_refI9func_decl11ast_managerED2Ev.exit:    ; preds = %invoke.cont23, %if.then.i.i.i, %if.then2.i.i.i
  %14 = load ptr, ptr %res, align 8
  %tobool.not.i.i13 = icmp eq ptr %14, null
  br i1 %tobool.not.i.i13, label %_ZN7obj_refI4expr11ast_managerED2Ev.exit, label %if.then.i.i.i14

if.then.i.i.i14:                                  ; preds = %_ZN7obj_refI9func_decl11ast_managerED2Ev.exit
  %15 = load ptr, ptr %m_manager.i4, align 8
  %m_ref_count.i.i.i.i16 = getelementptr inbounds i8, ptr %14, i64 8
  %16 = load i32, ptr %m_ref_count.i.i.i.i16, align 4
  %dec.i.i.i.i17 = add i32 %16, -1
  store i32 %dec.i.i.i.i17, ptr %m_ref_count.i.i.i.i16, align 4
  %cmp.i.i.i18 = icmp eq i32 %dec.i.i.i.i17, 0
  br i1 %cmp.i.i.i18, label %if.then2.i.i.i19, label %_ZN7obj_refI4expr11ast_managerED2Ev.exit

if.then2.i.i.i19:                                 ; preds = %if.then.i.i.i14
  invoke void @_ZN11ast_manager11delete_nodeEP3ast(ptr noundef nonnull align 8 dereferenceable(976) %15, ptr noundef nonnull %14)
          to label %_ZN7obj_refI4expr11ast_managerED2Ev.exit unwind label %terminate.lpad.i20

terminate.lpad.i20:                               ; preds = %if.then2.i.i.i19
  %17 = landingpad { ptr, i32 }
          catch ptr null
  %18 = extractvalue { ptr, i32 } %17, 0
  call void @__clang_call_terminate(ptr %18) #18
  unreachable

_ZN7obj_refI4expr11ast_managerED2Ev.exit:         ; preds = %_ZN7obj_refI9func_decl11ast_managerED2Ev.exit, %if.then.i.i.i14, %if.then2.i.i.i19
  ret ptr %call16

lpad:                                             ; preds = %entry
  %19 = landingpad { ptr, i32 }
          cleanup
  br label %ehcleanup

lpad9:                                            ; preds = %invoke.cont10, %invoke.cont17, %invoke.cont14
  %20 = landingpad { ptr, i32 }
          cleanup
  call void @_ZN7obj_refI9func_decl11ast_managerED2Ev(ptr noundef nonnull align 8 dereferenceable(16) %fn) #17
  br label %ehcleanup

ehcleanup:                                        ; preds = %lpad9, %lpad
  %.pn = phi { ptr, i32 } [ %20, %lpad9 ], [ %19, %lpad ]
  call void @_ZN7obj_refI4expr11ast_managerED2Ev(ptr noundef nonnull align 8 dereferenceable(16) %res) #17
  resume { ptr, i32 } %.pn
}